	.file	"counter_la_wlop.c"
	.option nopic
	.attribute arch, "rv32i2p0"
	.attribute unaligned_access, 0
	.attribute stack_align, 16
	.text
.Ltext0:
	.cfi_sections	.debug_frame
	.file 0 "/home/ubuntu/Desktop/lab-wlos_baseline/testbench/counter_la_wlop" "counter_la_wlop.c"
	.align	2
	.globl	putchar
	.type	putchar, @function
putchar:
.LFB316:
	.file 1 "../../firmware/stub.c"
	.loc 1 19 1
	.cfi_startproc
.LVL0:
	.loc 1 20 2
	.loc 1 19 1 is_stmt 0
	addi	sp,sp,-16
	.cfi_def_cfa_offset 16
	sw	s0,8(sp)
	sw	ra,12(sp)
	.cfi_offset 8, -8
	.cfi_offset 1, -4
	.loc 1 20 5
	li	a5,10
	.loc 1 19 1
	mv	s0,a0
	.loc 1 20 5
	bne	a0,a5,.L2
	.loc 1 21 3 is_stmt 1
	li	a0,13
.LVL1:
	call	putchar
.LVL2:
.L2:
	.loc 1 22 13 is_stmt 0 discriminator 1
	li	a5,-268410880
	.loc 1 22 60 discriminator 1
	li	a4,1
.L3:
	.loc 1 22 60 is_stmt 1 discriminator 1
	.loc 1 22 13 is_stmt 0 discriminator 1
	lw	a3,-2044(a5)
	.loc 1 22 60 discriminator 1
	beq	a3,a4,.L3
	.loc 1 23 2 is_stmt 1
	.loc 1 24 1 is_stmt 0
	lw	ra,12(sp)
	.cfi_restore 1
	.loc 1 23 50
	sw	s0,-2048(a5)
	.loc 1 24 1
	lw	s0,8(sp)
	.cfi_restore 8
	addi	sp,sp,16
	.cfi_def_cfa_offset 0
	jr	ra
	.cfi_endproc
.LFE316:
	.size	putchar, .-putchar
	.align	2
	.globl	print
	.type	print, @function
print:
.LFB317:
	.loc 1 27 1 is_stmt 1
	.cfi_startproc
.LVL3:
	addi	sp,sp,-16
	.cfi_def_cfa_offset 16
	sw	s0,8(sp)
	sw	ra,12(sp)
	.cfi_offset 8, -8
	.cfi_offset 1, -4
	mv	s0,a0
	.loc 1 28 2
.LVL4:
.L7:
	.loc 1 28 9
	lbu	a0,0(s0)
	bne	a0,zero,.L8
	.loc 1 30 1 is_stmt 0
	lw	ra,12(sp)
	.cfi_remember_state
	.cfi_restore 1
	lw	s0,8(sp)
	.cfi_restore 8
.LVL5:
	addi	sp,sp,16
	.cfi_def_cfa_offset 0
	jr	ra
.LVL6:
.L8:
	.cfi_restore_state
	.loc 1 29 3 is_stmt 1
	.loc 1 29 14 is_stmt 0
	addi	s0,s0,1
.LVL7:
	.loc 1 29 3
	call	putchar
.LVL8:
	j	.L7
	.cfi_endproc
.LFE317:
	.size	print, .-print
	.section	.text.startup,"ax",@progbits
	.align	2
	.globl	main
	.type	main, @function
main:
.LFB323:
	.file 2 "counter_la_wlop.c"
	.loc 2 48 1 is_stmt 1
	.cfi_startproc
	.loc 2 50 2
	.loc 2 52 2
	.loc 2 53 2
	.loc 2 79 5
	.loc 2 48 1 is_stmt 0
	addi	sp,sp,-16
	.cfi_def_cfa_offset 16
	sw	s0,8(sp)
	sw	ra,12(sp)
	.cfi_offset 8, -8
	.cfi_offset 1, -4
	.loc 2 79 53
	li	a2,1
	li	a5,-268419072
	.loc 2 81 39
	li	a3,8192
	addi	a4,a3,-2039
	.loc 2 79 53
	sw	a2,-2048(a5)
	.loc 2 81 5 is_stmt 1
	.loc 2 81 39 is_stmt 0
	li	a5,637534208
	sw	a4,160(a5)
	.loc 2 82 5 is_stmt 1
	.loc 2 82 39 is_stmt 0
	sw	a4,156(a5)
	.loc 2 83 5 is_stmt 1
	.loc 2 83 39 is_stmt 0
	sw	a4,152(a5)
	.loc 2 84 5 is_stmt 1
	.loc 2 84 39 is_stmt 0
	sw	a4,148(a5)
	.loc 2 85 5 is_stmt 1
	.loc 2 85 39 is_stmt 0
	sw	a4,144(a5)
	.loc 2 86 5 is_stmt 1
	.loc 2 86 39 is_stmt 0
	sw	a4,140(a5)
	.loc 2 87 5 is_stmt 1
	.loc 2 87 39 is_stmt 0
	sw	a4,136(a5)
	.loc 2 88 5 is_stmt 1
	.loc 2 88 39 is_stmt 0
	sw	a4,132(a5)
	.loc 2 89 5 is_stmt 1
	.loc 2 89 39 is_stmt 0
	sw	a4,128(a5)
	.loc 2 90 5 is_stmt 1
	.loc 2 90 39 is_stmt 0
	sw	a4,124(a5)
	.loc 2 91 5 is_stmt 1
	.loc 2 91 39 is_stmt 0
	sw	a4,120(a5)
	.loc 2 92 5 is_stmt 1
	.loc 2 92 39 is_stmt 0
	sw	a4,116(a5)
	.loc 2 93 5 is_stmt 1
	.loc 2 93 39 is_stmt 0
	sw	a4,112(a5)
	.loc 2 94 5 is_stmt 1
	.loc 2 94 39 is_stmt 0
	sw	a4,108(a5)
	.loc 2 95 5 is_stmt 1
	.loc 2 95 39 is_stmt 0
	sw	a4,104(a5)
	.loc 2 96 5 is_stmt 1
	.loc 2 96 39 is_stmt 0
	sw	a4,100(a5)
	.loc 2 98 5 is_stmt 1
	.loc 2 98 39 is_stmt 0
	sw	a4,96(a5)
	.loc 2 99 5 is_stmt 1
	.loc 2 99 39 is_stmt 0
	sw	a4,92(a5)
	.loc 2 100 5 is_stmt 1
	.loc 2 100 39 is_stmt 0
	sw	a4,88(a5)
	.loc 2 101 5 is_stmt 1
	.loc 2 101 39 is_stmt 0
	sw	a4,84(a5)
	.loc 2 102 5 is_stmt 1
	.loc 2 102 39 is_stmt 0
	sw	a4,80(a5)
	.loc 2 103 5 is_stmt 1
	.loc 2 103 39 is_stmt 0
	sw	a4,76(a5)
	.loc 2 104 5 is_stmt 1
	.loc 2 104 39 is_stmt 0
	sw	a4,72(a5)
	.loc 2 105 5 is_stmt 1
	.loc 2 105 39 is_stmt 0
	sw	a4,68(a5)
	.loc 2 106 5 is_stmt 1
	.loc 2 106 39 is_stmt 0
	sw	a4,64(a5)
	.loc 2 107 5 is_stmt 1
	.loc 2 107 39 is_stmt 0
	sw	a4,52(a5)
	.loc 2 108 5 is_stmt 1
	.loc 2 108 39 is_stmt 0
	sw	a4,48(a5)
	.loc 2 109 5 is_stmt 1
	.loc 2 109 39 is_stmt 0
	sw	a4,44(a5)
	.loc 2 110 5 is_stmt 1
	.loc 2 110 39 is_stmt 0
	sw	a4,40(a5)
	.loc 2 111 5 is_stmt 1
	.loc 2 113 39 is_stmt 0
	addi	a3,a3,-2040
	.loc 2 111 39
	sw	a4,36(a5)
	.loc 2 113 5 is_stmt 1
	.loc 2 113 39 is_stmt 0
	sw	a3,60(a5)
	.loc 2 114 5 is_stmt 1
	.loc 2 114 39 is_stmt 0
	li	a4,1026
	sw	a4,56(a5)
	.loc 2 121 2 is_stmt 1
	.loc 2 121 36 is_stmt 0
	sw	a2,0(a5)
	.loc 2 122 2 is_stmt 1
	.loc 2 122 10 is_stmt 0
	li	s0,637534208
	.loc 2 122 43
	li	a4,1
.L11:
	.loc 2 122 43 is_stmt 1 discriminator 1
	.loc 2 122 10 is_stmt 0 discriminator 1
	lw	a5,0(s0)
	.loc 2 122 43 discriminator 1
	beq	a5,a4,.L11
	.loc 2 126 2 is_stmt 1
	.loc 2 126 114 is_stmt 0
	li	a5,-268423168
	sw	zero,12(a5)
	.loc 2 126 57
	sw	zero,28(a5)
	.loc 2 127 2 is_stmt 1
	.loc 2 127 112 is_stmt 0
	li	a3,-1
	sw	a3,8(a5)
	.loc 2 127 56
	sw	a3,24(a5)
	.loc 2 128 2 is_stmt 1
	.loc 2 128 112 is_stmt 0
	sw	zero,4(a5)
	.loc 2 128 56
	sw	zero,20(a5)
	.loc 2 129 2 is_stmt 1
	.loc 2 129 100 is_stmt 0
	sw	zero,0(a5)
	.loc 2 129 50
	sw	zero,16(a5)
	.loc 2 132 2 is_stmt 1
	.loc 2 132 36 is_stmt 0
	li	a3,-1421869056
	sw	a3,12(s0)
	.loc 2 135 2 is_stmt 1
	.loc 2 135 56 is_stmt 0
	sw	zero,56(a5)
	.loc 2 138 2 is_stmt 1
	.loc 2 138 112 is_stmt 0
	sw	zero,8(a5)
	.loc 2 138 56
	sw	zero,24(a5)
	.loc 2 150 3 is_stmt 1
.LBB12:
.LBB13:
	.file 3 "../../firmware/irq_vex.h"
	.loc 3 24 2
	.loc 3 25 2
 #APP
# 25 "../../firmware/irq_vex.h" 1
	csrr a5, 3008
# 0 "" 2
.LVL9:
	.loc 3 26 2
 #NO_APP
.LBE13:
.LBE12:
	.loc 2 151 3
	.loc 2 152 3
.LBB14:
.LBB15:
	.loc 3 31 2
	ori	a5,a5,4
.LVL10:
 #APP
# 31 "../../firmware/irq_vex.h" 1
	csrw 3008, a5
# 0 "" 2
.LVL11:
 #NO_APP
.LBE15:
.LBE14:
	.loc 2 154 3
.LBB16:
	.file 4 "../../firmware/csr.h"
	.loc 4 806 2
.LBB17:
.LBB18:
	.file 5 "../../firmware/hw/common.h"
	.loc 5 34 2
	.loc 5 34 32 is_stmt 0
	li	a5,-268406784
.LVL12:
	sw	a4,-2028(a5)
.LVL13:
.LBE18:
.LBE17:
.LBE16:
	.loc 2 158 2 is_stmt 1
	.loc 2 158 36 is_stmt 0
	li	a5,-1421803520
	sw	a5,12(s0)
	.loc 2 162 2 is_stmt 1
	.loc 2 162 13 is_stmt 0
	call	matmul
.LVL14:
	.loc 2 163 2 is_stmt 1
	.loc 2 163 43 is_stmt 0
	lw	a5,0(a0)
	slli	a5,a5,16
	.loc 2 163 36
	sw	a5,12(s0)
	.loc 2 169 2 is_stmt 1
	.loc 2 169 47 is_stmt 0
	lw	a5,12(a0)
	slli	a5,a5,16
	.loc 2 169 36
	sw	a5,12(s0)
	.loc 2 174 2 is_stmt 1
	.loc 2 174 36 is_stmt 0
	li	a5,-1421737984
	sw	a5,12(s0)
	.loc 2 179 2 is_stmt 1
	.loc 2 179 14 is_stmt 0
	call	qsort
.LVL15:
	.loc 2 180 2 is_stmt 1
	.loc 2 180 44 is_stmt 0
	lw	a5,0(a0)
	slli	a5,a5,16
	.loc 2 180 36
	sw	a5,12(s0)
	.loc 2 185 2 is_stmt 1
	.loc 2 185 48 is_stmt 0
	lw	a5,36(a0)
	slli	a5,a5,16
	.loc 2 185 36
	sw	a5,12(s0)
	.loc 2 187 2 is_stmt 1
	.loc 2 187 36 is_stmt 0
	li	a5,-1421672448
	sw	a5,12(s0)
	.loc 2 194 2 is_stmt 1
	.loc 2 194 14 is_stmt 0
	call	fir
.LVL16:
	.loc 2 195 2 is_stmt 1
	.loc 2 195 44 is_stmt 0
	lw	a5,0(a0)
	.loc 2 209 1
	lw	ra,12(sp)
	.cfi_restore 1
	.loc 2 195 44
	slli	a5,a5,16
	.loc 2 195 36
	sw	a5,12(s0)
	.loc 2 200 2 is_stmt 1
	.loc 2 200 49 is_stmt 0
	lw	a5,40(a0)
	slli	a5,a5,16
	.loc 2 200 36
	sw	a5,12(s0)
	.loc 2 206 2 is_stmt 1
	.loc 2 206 36 is_stmt 0
	li	a5,-1420754944
	sw	a5,12(s0)
	.loc 2 209 1
	lw	s0,8(sp)
	.cfi_restore 8
	addi	sp,sp,16
	.cfi_def_cfa_offset 0
	jr	ra
	.cfi_endproc
.LFE323:
	.size	main, .-main
	.text
.Letext0:
	.file 6 "/opt/riscv/lib/gcc/riscv32-unknown-elf/12.1.0/include/stdint-gcc.h"